target datalayout = "e-m:e-p270:32:32-p271:32:32-p272:64:64-i64:64-i128:128-f80:128-n8:16:32:64-S128"
target triple = "x86_64-pc-linux-gnu"

%struct.rb_data_type_struct = type { ptr, %struct.anon, ptr, ptr, i64 }
%struct.anon = type { ptr, ptr, ptr, ptr, [1 x ptr] }

@cX509Name = internal global i64 0, align 8
@ossl_x509name_type = internal constant %struct.rb_data_type_struct { ptr @.str.30, %struct.anon { ptr null, ptr @ossl_x509name_free, ptr null, ptr null, [1 x ptr] zeroinitializer }, ptr null, ptr null, i64 33 }, align 8
@rb_eRuntimeError = external global i64, align 8
@.str = private unnamed_addr constant [25 x i8] c"Name wasn't initialized.\00", align 1

; Function Attrs: nounwind sspstrong uwtable
define internal i32 @ossl_x509name_cmp0(i64 noundef %0, i64 noundef %1) #0 {
  %3 = alloca i64, align 8
  %4 = alloca i64, align 8
  %5 = alloca ptr, align 8
  %6 = alloca ptr, align 8
  store i64 %0, ptr %3, align 8, !tbaa !11
  store i64 %1, ptr %4, align 8, !tbaa !11
  call void @llvm.lifetime.start.p0(i64 8, ptr %5) #18
  call void @llvm.lifetime.start.p0(i64 8, ptr %6) #18
  br label %7

7:                                                ; preds = %2
  %8 = load i64, ptr %3, align 8, !tbaa !11
  %9 = call ptr @rb_check_typeddata(i64 noundef %8, ptr noundef @ossl_x509name_type)
  store ptr %9, ptr %5, align 8, !tbaa !6
  %10 = load ptr, ptr %5, align 8, !tbaa !6
  %11 = icmp ne ptr %10, null
  br i1 %11, label %14, label %12

12:                                               ; preds = %7
  %13 = load i64, ptr @rb_eRuntimeError, align 8, !tbaa !11
  call void (i64, ptr, ...) @ossl_raise(i64 noundef %13, ptr noundef @.str) #19
  unreachable

14:                                               ; preds = %7
  br label %15

15:                                               ; preds = %14
  br label %16

16:                                               ; preds = %15
  br label %17

17:                                               ; preds = %16
  %18 = load i64, ptr %4, align 8, !tbaa !11
  %19 = call ptr @rb_check_typeddata(i64 noundef %18, ptr noundef @ossl_x509name_type)
  store ptr %19, ptr %6, align 8, !tbaa !6
  %20 = load ptr, ptr %6, align 8, !tbaa !6
  %21 = icmp ne ptr %20, null
  br i1 %21, label %24, label %22

22:                                               ; preds = %17
  %23 = load i64, ptr @rb_eRuntimeError, align 8, !tbaa !11
  call void (i64, ptr, ...) @ossl_raise(i64 noundef %23, ptr noundef @.str) #19
  unreachable

24:                                               ; preds = %17
  br label %25

25:                                               ; preds = %24
  br label %26

26:                                               ; preds = %25
  %27 = load ptr, ptr %5, align 8, !tbaa !6
  %28 = load ptr, ptr %6, align 8, !tbaa !6
  %29 = call i32 @X509_NAME_cmp(ptr noundef %27, ptr noundef %28)
  call void @llvm.lifetime.end.p0(i64 8, ptr %6) #18
  call void @llvm.lifetime.end.p0(i64 8, ptr %5) #18
  ret i32 %29
}

; Function Attrs: nounwind sspstrong uwtable
define internal i64 @ossl_x509name_cmp(i64 noundef %0, i64 noundef %1) #0 {
  %3 = alloca i64, align 8
  %4 = alloca i64, align 8
  %5 = alloca i64, align 8
  %6 = alloca i32, align 4
  %7 = alloca i32, align 4
  store i64 %0, ptr %4, align 8, !tbaa !11
  store i64 %1, ptr %5, align 8, !tbaa !11
  call void @llvm.lifetime.start.p0(i64 4, ptr %6) #18
  %8 = load i64, ptr %5, align 8, !tbaa !11
  %9 = load i64, ptr @cX509Name, align 8, !tbaa !11
  %10 = call i64 @rb_obj_is_kind_of(i64 noundef %8, i64 noundef %9)
  %11 = icmp ne i64 %10, 0
  br i1 %11, label %13, label %12

12:                                               ; preds = %2
  store i64 4, ptr %3, align 8
  store i32 1, ptr %7, align 4
  br label %25

13:                                               ; preds = %2
  %14 = load i64, ptr %4, align 8, !tbaa !11
  %15 = load i64, ptr %5, align 8, !tbaa !11
  %16 = call i32 @ossl_x509name_cmp0(i64 noundef %14, i64 noundef %15)
  store i32 %16, ptr %6, align 4, !tbaa !17
  %17 = load i32, ptr %6, align 4, !tbaa !17
  %18 = icmp slt i32 %17, 0
  br i1 %18, label %19, label %20

19:                                               ; preds = %13
  store i64 -1, ptr %3, align 8
  store i32 1, ptr %7, align 4
  br label %25

20:                                               ; preds = %13
  %21 = load i32, ptr %6, align 4, !tbaa !17
  %22 = icmp sgt i32 %21, 0
  br i1 %22, label %23, label %24

23:                                               ; preds = %20
  store i64 3, ptr %3, align 8
  store i32 1, ptr %7, align 4
  br label %25

24:                                               ; preds = %20
  store i64 1, ptr %3, align 8
  store i32 1, ptr %7, align 4
  br label %25

25:                                               ; preds = %24, %23, %19, %12
  call void @llvm.lifetime.end.p0(i64 4, ptr %6) #18
  %26 = load i64, ptr %3, align 8
  ret i64 %26
}